; Function Attrs: nounwind uwtable
define hidden noundef zeroext i1 @Wayland_InitKeyboard(ptr noundef readonly captures(none) %0) local_unnamed_addr #0 {
  %2 = getelementptr inbounds nuw i8, ptr %0, i64 1656
  %3 = load ptr, ptr %2, align 8
  %4 = getelementptr inbounds nuw i8, ptr %3, i64 144
  %5 = load ptr, ptr %4, align 8
  %.not = icmp eq ptr %5, null
  br i1 %.not, label %6, label %8

6:                                                ; preds = %1
  %7 = tail call zeroext i1 @SDL_IME_Init() #5
  br label %8

8:                                                ; preds = %6, %1
  %9 = tail call zeroext i1 @SDL_SetScancodeName_REAL(i32 noundef 101, ptr noundef nonnull @.str) #5
  ret i1 true
}